
test:     file format elf32-i386-freebsd

Disassembly of section .init:

08048298 <_init>:
 8048298:	83 ec 0c             	sub    $0xc,%esp
 804829b:	e8 30 01 00 00       	call   80483d0 <frame_dummy>
 80482a0:	e8 cb 01 00 00       	call   8048470 <__do_global_ctors_aux>
 80482a5:	83 c4 0c             	add    $0xc,%esp
 80482a8:	c3                   	ret    
Disassembly of section .plt:

080482ac <.plt>:
 80482ac:	ff 35 2c 96 04 08    	pushl  0x804962c
 80482b2:	ff 25 30 96 04 08    	jmp    *0x8049630
 80482b8:	00 00                	add    %al,(%eax)
 80482ba:	00 00                	add    %al,(%eax)
 80482bc:	ff 25 34 96 04 08    	jmp    *0x8049634
 80482c2:	68 00 00 00 00       	push   $0x0
 80482c7:	e9 e0 ff ff ff       	jmp    80482ac <_init+0x14>
 80482cc:	ff 25 38 96 04 08    	jmp    *0x8049638
 80482d2:	68 08 00 00 00       	push   $0x8
 80482d7:	e9 d0 ff ff ff       	jmp    80482ac <_init+0x14>
 80482dc:	ff 25 3c 96 04 08    	jmp    *0x804963c
 80482e2:	68 10 00 00 00       	push   $0x10
 80482e7:	e9 c0 ff ff ff       	jmp    80482ac <_init+0x14>
 80482ec:	ff 25 40 96 04 08    	jmp    *0x8049640
 80482f2:	68 18 00 00 00       	push   $0x18
 80482f7:	e9 b0 ff ff ff       	jmp    80482ac <_init+0x14>
Disassembly of section .text:

08048300 <_start>:
 8048300:	55                   	push   %ebp
 8048301:	89 e5                	mov    %esp,%ebp
 8048303:	56                   	push   %esi
 8048304:	53                   	push   %ebx
 8048305:	83 ec 10             	sub    $0x10,%esp
 8048308:	83 e4 f0             	and    $0xfffffff0,%esp
 804830b:	8b 5d 04             	mov    0x4(%ebp),%ebx
 804830e:	89 d1                	mov    %edx,%ecx
 8048310:	8d 74 9d 0c          	lea    0xc(%ebp,%ebx,4),%esi
 8048314:	85 db                	test   %ebx,%ebx
 8048316:	89 35 48 96 04 08    	mov    %esi,0x8049648
 804831c:	7e 36                	jle    8048354 <_start+0x54>
 804831e:	8b 45 08             	mov    0x8(%ebp),%eax
 8048321:	85 c0                	test   %eax,%eax
 8048323:	74 2f                	je     8048354 <_start+0x54>
 8048325:	a3 54 95 04 08       	mov    %eax,0x8049554
 804832a:	0f b6 10             	movzbl (%eax),%edx
 804832d:	84 d2                	test   %dl,%dl
 804832f:	74 23                	je     8048354 <_start+0x54>
 8048331:	83 c0 01             	add    $0x1,%eax
 8048334:	eb 0a                	jmp    8048340 <_start+0x40>
 8048336:	0f b6 10             	movzbl (%eax),%edx
 8048339:	83 c0 01             	add    $0x1,%eax
 804833c:	84 d2                	test   %dl,%dl
 804833e:	74 14                	je     8048354 <_start+0x54>
 8048340:	80 fa 2f             	cmp    $0x2f,%dl
 8048343:	75 f1                	jne    8048336 <_start+0x36>
 8048345:	a3 54 95 04 08       	mov    %eax,0x8049554
 804834a:	0f b6 10             	movzbl (%eax),%edx
 804834d:	83 c0 01             	add    $0x1,%eax
 8048350:	84 d2                	test   %dl,%dl
 8048352:	75 ec                	jne    8048340 <_start+0x40>
 8048354:	b8 64 95 04 08       	mov    $0x8049564,%eax
 8048359:	85 c0                	test   %eax,%eax
 804835b:	74 34                	je     8048391 <_start+0x91>
 804835d:	89 0c 24             	mov    %ecx,(%esp)
 8048360:	e8 87 ff ff ff       	call   80482ec <_init+0x54>
 8048365:	c7 04 24 9c 84 04 08 	movl   $0x804849c,(%esp)
 804836c:	e8 7b ff ff ff       	call   80482ec <_init+0x54>
 8048371:	e8 22 ff ff ff       	call   8048298 <_init>
 8048376:	8d 45 08             	lea    0x8(%ebp),%eax
 8048379:	89 74 24 08          	mov    %esi,0x8(%esp)
 804837d:	89 44 24 04          	mov    %eax,0x4(%esp)
 8048381:	89 1c 24             	mov    %ebx,(%esp)
 8048384:	e8 97 00 00 00       	call   8048420 <main>
 8048389:	89 04 24             	mov    %eax,(%esp)
 804838c:	e8 4b ff ff ff       	call   80482dc <_init+0x44>
 8048391:	e8 26 ff ff ff       	call   80482bc <_init+0x24>
 8048396:	eb cd                	jmp    8048365 <_start+0x65>
 8048398:	90                   	nop    
 8048399:	90                   	nop    
 804839a:	90                   	nop    
 804839b:	90                   	nop    
 804839c:	90                   	nop    
 804839d:	90                   	nop    
 804839e:	90                   	nop    
 804839f:	90                   	nop    

080483a0 <__do_global_dtors_aux>:
 80483a0:	55                   	push   %ebp
 80483a1:	89 e5                	mov    %esp,%ebp
 80483a3:	83 ec 08             	sub    $0x8,%esp
 80483a6:	80 3d 44 96 04 08 00 	cmpb   $0x0,0x8049644
 80483ad:	74 0c                	je     80483bb <__do_global_dtors_aux+0x1b>
 80483af:	eb 1c                	jmp    80483cd <__do_global_dtors_aux+0x2d>
 80483b1:	83 c0 04             	add    $0x4,%eax
 80483b4:	a3 5c 95 04 08       	mov    %eax,0x804955c
 80483b9:	ff d2                	call   *%edx
 80483bb:	a1 5c 95 04 08       	mov    0x804955c,%eax
 80483c0:	8b 10                	mov    (%eax),%edx
 80483c2:	85 d2                	test   %edx,%edx
 80483c4:	75 eb                	jne    80483b1 <__do_global_dtors_aux+0x11>
 80483c6:	c6 05 44 96 04 08 01 	movb   $0x1,0x8049644
 80483cd:	c9                   	leave  
 80483ce:	c3                   	ret    
 80483cf:	90                   	nop    

080483d0 <frame_dummy>:
 80483d0:	55                   	push   %ebp
 80483d1:	89 e5                	mov    %esp,%ebp
 80483d3:	83 ec 08             	sub    $0x8,%esp
 80483d6:	a1 24 96 04 08       	mov    0x8049624,%eax
 80483db:	85 c0                	test   %eax,%eax
 80483dd:	74 12                	je     80483f1 <frame_dummy+0x21>
 80483df:	b8 00 00 00 00       	mov    $0x0,%eax
 80483e4:	85 c0                	test   %eax,%eax
 80483e6:	74 09                	je     80483f1 <frame_dummy+0x21>
 80483e8:	c7 04 24 24 96 04 08 	movl   $0x8049624,(%esp)
 80483ef:	ff d0                	call   *%eax
 80483f1:	c9                   	leave  
 80483f2:	c3                   	ret    
 80483f3:	90                   	nop    
 80483f4:	90                   	nop    
 80483f5:	90                   	nop    
 80483f6:	90                   	nop    
 80483f7:	90                   	nop    
 80483f8:	90                   	nop    
 80483f9:	90                   	nop    
 80483fa:	90                   	nop    
 80483fb:	90                   	nop    
 80483fc:	90                   	nop    
 80483fd:	90                   	nop    
 80483fe:	90                   	nop    
 80483ff:	90                   	nop    

08048400 <p>:
 8048400:	55                   	push   %ebp
 8048401:	89 e5                	mov    %esp,%ebp
 8048403:	83 ec 10             	sub    $0x10,%esp
 8048406:	c7 45 fc 14 00 00 00 	movl   $0x14,0xfffffffc(%ebp)
 804840d:	8b 45 fc             	mov    0xfffffffc(%ebp),%eax
 8048410:	03 45 08             	add    0x8(%ebp),%eax
 8048413:	c9                   	leave  
 8048414:	c3                   	ret    
 8048415:	8d 74 26 00          	lea    0x0(%esi),%esi
 8048419:	8d bc 27 00 00 00 00 	lea    0x0(%edi),%edi

08048420 <main>:
 8048420:	8d 4c 24 04          	lea    0x4(%esp),%ecx
 8048424:	83 e4 f0             	and    $0xfffffff0,%esp
 8048427:	ff 71 fc             	pushl  0xfffffffc(%ecx)
 804842a:	55                   	push   %ebp
 804842b:	89 e5                	mov    %esp,%ebp
 804842d:	51                   	push   %ecx
 804842e:	83 ec 24             	sub    $0x24,%esp
 8048431:	c7 45 f8 0a 00 00 00 	movl   $0xa,0xfffffff8(%ebp)
 8048438:	8b 45 f8             	mov    0xfffffff8(%ebp),%eax
 804843b:	89 04 24             	mov    %eax,(%esp)
 804843e:	e8 bd ff ff ff       	call   8048400 <p>
 8048443:	89 44 24 04          	mov    %eax,0x4(%esp)
 8048447:	c7 04 24 fb 84 04 08 	movl   $0x80484fb,(%esp)
 804844e:	e8 79 fe ff ff       	call   80482cc <_init+0x34>
 8048453:	b8 00 00 00 00       	mov    $0x0,%eax
 8048458:	83 c4 24             	add    $0x24,%esp
 804845b:	59                   	pop    %ecx
 804845c:	5d                   	pop    %ebp
 804845d:	8d 61 fc             	lea    0xfffffffc(%ecx),%esp
 8048460:	c3                   	ret    
 8048461:	90                   	nop    
 8048462:	90                   	nop    
 8048463:	90                   	nop    
 8048464:	90                   	nop    
 8048465:	90                   	nop    
 8048466:	90                   	nop    
 8048467:	90                   	nop    
 8048468:	90                   	nop    
 8048469:	90                   	nop    
 804846a:	90                   	nop    
 804846b:	90                   	nop    
 804846c:	90                   	nop    
 804846d:	90                   	nop    
 804846e:	90                   	nop    
 804846f:	90                   	nop    

08048470 <__do_global_ctors_aux>:
 8048470:	55                   	push   %ebp
 8048471:	89 e5                	mov    %esp,%ebp
 8048473:	53                   	push   %ebx
 8048474:	83 ec 04             	sub    $0x4,%esp
 8048477:	a1 14 96 04 08       	mov    0x8049614,%eax
 804847c:	83 f8 ff             	cmp    $0xffffffff,%eax
 804847f:	74 12                	je     8048493 <__do_global_ctors_aux+0x23>
 8048481:	31 db                	xor    %ebx,%ebx
 8048483:	ff d0                	call   *%eax
 8048485:	8b 83 10 96 04 08    	mov    0x8049610(%ebx),%eax
 804848b:	83 eb 04             	sub    $0x4,%ebx
 804848e:	83 f8 ff             	cmp    $0xffffffff,%eax
 8048491:	75 f0                	jne    8048483 <__do_global_ctors_aux+0x13>
 8048493:	83 c4 04             	add    $0x4,%esp
 8048496:	5b                   	pop    %ebx
 8048497:	5d                   	pop    %ebp
 8048498:	c3                   	ret    
 8048499:	90                   	nop    
 804849a:	90                   	nop    
 804849b:	90                   	nop    
Disassembly of section .fini:

0804849c <_fini>:
 804849c:	83 ec 0c             	sub    $0xc,%esp
 804849f:	e8 fc fe ff ff       	call   80483a0 <__do_global_dtors_aux>
 80484a4:	83 c4 0c             	add    $0xc,%esp
 80484a7:	c3                   	ret    